target datalayout = "e-m:e-p270:32:32-p271:32:32-p272:64:64-i64:64-i128:128-f80:128-n8:16:32:64-S128"
target triple = "x86_64-pc-linux-gnu"

; Function Attrs: mustprogress nounwind uwtable
define internal noundef i32 @_ZL17compareToDatabaseRKNSt7__cxx1112basic_stringIcSt11char_traitsIcESaIcEEES6_(ptr noundef nonnull align 8 dereferenceable(32) %0, ptr noundef nonnull align 8 dereferenceable(32) %1) #3 {
  %3 = alloca i32, align 4
  %4 = alloca ptr, align 8
  %5 = alloca ptr, align 8
  %6 = alloca i64, align 8
  %7 = alloca i64, align 8
  store ptr %0, ptr %4, align 8
  store ptr %1, ptr %5, align 8
  %8 = load ptr, ptr %5, align 8
  %9 = call noundef i64 @_ZNKSt7__cxx1112basic_stringIcSt11char_traitsIcESaIcEE6lengthEv(ptr noundef nonnull align 8 dereferenceable(32) %8) #13
  %10 = load ptr, ptr %4, align 8
  %11 = call noundef i64 @_ZNKSt7__cxx1112basic_stringIcSt11char_traitsIcESaIcEE6lengthEv(ptr noundef nonnull align 8 dereferenceable(32) %10) #13
  %12 = icmp ugt i64 %9, %11
  br i1 %12, label %13, label %14

13:                                               ; preds = %2
  store i32 -4, ptr %3, align 4
  br label %48

14:                                               ; preds = %2
  store i64 0, ptr %6, align 8
  store i64 0, ptr %7, align 8
  br label %15

15:                                               ; preds = %36, %14
  %16 = load i64, ptr %7, align 8
  %17 = load ptr, ptr %5, align 8
  %18 = call noundef i64 @_ZNKSt7__cxx1112basic_stringIcSt11char_traitsIcESaIcEE6lengthEv(ptr noundef nonnull align 8 dereferenceable(32) %17) #13
  %19 = icmp ult i64 %16, %18
  br i1 %19, label %20, label %39

20:                                               ; preds = %15
  %21 = load ptr, ptr %4, align 8
  %22 = load i64, ptr %7, align 8
  %23 = call noundef nonnull align 1 dereferenceable(1) ptr @_ZNKSt7__cxx1112basic_stringIcSt11char_traitsIcESaIcEEixEm(ptr noundef nonnull align 8 dereferenceable(32) %21, i64 noundef %22) #13
  %24 = load i8, ptr %23, align 1
  %25 = sext i8 %24 to i32
  %26 = load ptr, ptr %5, align 8
  %27 = load i64, ptr %7, align 8
  %28 = call noundef nonnull align 1 dereferenceable(1) ptr @_ZNKSt7__cxx1112basic_stringIcSt11char_traitsIcESaIcEEixEm(ptr noundef nonnull align 8 dereferenceable(32) %26, i64 noundef %27) #13
  %29 = load i8, ptr %28, align 1
  %30 = sext i8 %29 to i32
  %31 = icmp eq i32 %25, %30
  br i1 %31, label %32, label %35

32:                                               ; preds = %20
  %33 = load i64, ptr %6, align 8
  %34 = add i64 %33, 1
  store i64 %34, ptr %6, align 8
  br label %35

35:                                               ; preds = %32, %20
  br label %36

36:                                               ; preds = %35
  %37 = load i64, ptr %7, align 8
  %38 = add i64 %37, 1
  store i64 %38, ptr %7, align 8
  br label %15, !llvm.loop !11

39:                                               ; preds = %15
  %40 = load i64, ptr %6, align 8
  %41 = load ptr, ptr %5, align 8
  %42 = call noundef i64 @_ZNKSt7__cxx1112basic_stringIcSt11char_traitsIcESaIcEE6lengthEv(ptr noundef nonnull align 8 dereferenceable(32) %41) #13
  %43 = icmp eq i64 %40, %42
  br i1 %43, label %44, label %47

44:                                               ; preds = %39
  %45 = load i64, ptr %6, align 8
  %46 = trunc i64 %45 to i32
  store i32 %46, ptr %3, align 4
  br label %48

47:                                               ; preds = %39
  store i32 -4, ptr %3, align 4
  br label %48

48:                                               ; preds = %47, %44, %13
  %49 = load i32, ptr %3, align 4
  ret i32 %49
}