; Function Attrs: mustprogress nounwind uwtable
define internal fastcc noundef i32 @_ZL17compareToDatabaseRKNSt7__cxx1112basic_stringIcSt11char_traitsIcESaIcEEES6_(ptr noundef nonnull align 8 dereferenceable(32) %0, ptr noundef nonnull align 8 dereferenceable(32) %1) unnamed_addr #5 {
  %3 = tail call noundef i64 @_ZNKSt7__cxx1112basic_stringIcSt11char_traitsIcESaIcEE6lengthEv(ptr noundef nonnull align 8 dereferenceable(32) %1) #19
  %4 = tail call noundef i64 @_ZNKSt7__cxx1112basic_stringIcSt11char_traitsIcESaIcEE6lengthEv(ptr noundef nonnull align 8 dereferenceable(32) %0) #19
  %5 = icmp ugt i64 %3, %4
  br i1 %5, label %19, label %.preheader

.preheader:                                       ; preds = %2
  %6 = tail call noundef i64 @_ZNKSt7__cxx1112basic_stringIcSt11char_traitsIcESaIcEE6lengthEv(ptr noundef nonnull align 8 dereferenceable(32) %1) #19
  %.not = icmp eq i64 %6, 0
  br i1 %.not, label %._crit_edge, label %.lr.ph

.lr.ph:                                           ; preds = %.preheader, %.lr.ph
  %.017 = phi i64 [ %13, %.lr.ph ], [ 0, %.preheader ]
  %.01316 = phi i64 [ %spec.select, %.lr.ph ], [ 0, %.preheader ]
  %7 = tail call noundef nonnull align 1 dereferenceable(1) ptr @_ZNKSt7__cxx1112basic_stringIcSt11char_traitsIcESaIcEEixEm(ptr noundef nonnull align 8 dereferenceable(32) %0, i64 noundef %.017) #19
  %8 = load i8, ptr %7, align 1
  %9 = tail call noundef nonnull align 1 dereferenceable(1) ptr @_ZNKSt7__cxx1112basic_stringIcSt11char_traitsIcESaIcEEixEm(ptr noundef nonnull align 8 dereferenceable(32) %1, i64 noundef %.017) #19
  %10 = load i8, ptr %9, align 1
  %11 = icmp eq i8 %8, %10
  %12 = zext i1 %11 to i64
  %spec.select = add i64 %.01316, %12
  %13 = add nuw i64 %.017, 1
  %14 = tail call noundef i64 @_ZNKSt7__cxx1112basic_stringIcSt11char_traitsIcESaIcEE6lengthEv(ptr noundef nonnull align 8 dereferenceable(32) %1) #19
  %15 = icmp ult i64 %13, %14
  br i1 %15, label %.lr.ph, label %._crit_edge, !llvm.loop !21

._crit_edge:                                      ; preds = %.lr.ph, %.preheader
  %.013.lcssa = phi i64 [ 0, %.preheader ], [ %spec.select, %.lr.ph ]
  %16 = tail call noundef i64 @_ZNKSt7__cxx1112basic_stringIcSt11char_traitsIcESaIcEE6lengthEv(ptr noundef nonnull align 8 dereferenceable(32) %1) #19
  %17 = icmp eq i64 %.013.lcssa, %16
  %18 = trunc i64 %.013.lcssa to i32
  %spec.select15 = select i1 %17, i32 %18, i32 -4
  br label %19

19:                                               ; preds = %._crit_edge, %2
  %.014 = phi i32 [ -4, %2 ], [ %spec.select15, %._crit_edge ]
  ret i32 %.014
}